target datalayout = "e-m:e-p270:32:32-p271:32:32-p272:64:64-i64:64-i128:128-f80:128-n8:16:32:64-S128"
target triple = "x86_64-pc-linux-gnu"

%struct.lexbor_mem = type { ptr, ptr, i64, i64 }
%struct.lexbor_mem_chunk = type { ptr, i64, i64, ptr, ptr }

; Function Attrs: nounwind uwtable
define hidden void @lexbor_mem_clean(ptr noundef %0) #0 {
  %2 = alloca ptr, align 8
  %3 = alloca ptr, align 8
  %4 = alloca ptr, align 8
  store ptr %0, ptr %2, align 8
  %5 = load ptr, ptr %2, align 8
  %6 = icmp eq ptr %5, null
  br i1 %6, label %7, label %8

7:                                                ; preds = %1
  br label %42

8:                                                ; preds = %1
  %9 = load ptr, ptr %2, align 8
  %10 = getelementptr inbounds %struct.lexbor_mem, ptr %9, i32 0, i32 0
  %11 = load ptr, ptr %10, align 8
  store ptr %11, ptr %4, align 8
  br label %12

12:                                               ; preds = %17, %8
  %13 = load ptr, ptr %4, align 8
  %14 = getelementptr inbounds %struct.lexbor_mem_chunk, ptr %13, i32 0, i32 4
  %15 = load ptr, ptr %14, align 8
  %16 = icmp ne ptr %15, null
  br i1 %16, label %17, label %30

17:                                               ; preds = %12
  %18 = load ptr, ptr %4, align 8
  %19 = getelementptr inbounds %struct.lexbor_mem_chunk, ptr %18, i32 0, i32 4
  %20 = load ptr, ptr %19, align 8
  store ptr %20, ptr %3, align 8
  %21 = load ptr, ptr %4, align 8
  %22 = getelementptr inbounds %struct.lexbor_mem_chunk, ptr %21, i32 0, i32 0
  %23 = load ptr, ptr %22, align 8
  %24 = call ptr @lexbor_free(ptr noundef %23)
  %25 = load ptr, ptr %4, align 8
  %26 = getelementptr inbounds %struct.lexbor_mem_chunk, ptr %25, i32 0, i32 0
  store ptr %24, ptr %26, align 8
  %27 = load ptr, ptr %4, align 8
  %28 = call ptr @lexbor_free(ptr noundef %27)
  %29 = load ptr, ptr %3, align 8
  store ptr %29, ptr %4, align 8
  br label %12

30:                                               ; preds = %12
  %31 = load ptr, ptr %4, align 8
  %32 = getelementptr inbounds %struct.lexbor_mem_chunk, ptr %31, i32 0, i32 3
  store ptr null, ptr %32, align 8
  %33 = load ptr, ptr %4, align 8
  %34 = getelementptr inbounds %struct.lexbor_mem_chunk, ptr %33, i32 0, i32 1
  store i64 0, ptr %34, align 8
  %35 = load ptr, ptr %2, align 8
  %36 = getelementptr inbounds %struct.lexbor_mem, ptr %35, i32 0, i32 1
  %37 = load ptr, ptr %36, align 8
  %38 = load ptr, ptr %2, align 8
  %39 = getelementptr inbounds %struct.lexbor_mem, ptr %38, i32 0, i32 0
  store ptr %37, ptr %39, align 8
  %40 = load ptr, ptr %2, align 8
  %41 = getelementptr inbounds %struct.lexbor_mem, ptr %40, i32 0, i32 3
  store i64 1, ptr %41, align 8
  br label %42

42:                                               ; preds = %30, %7
  ret void
}