; Function Attrs: nounwind uwtable
define hidden void @lexbor_mem_clean(ptr noundef %0) local_unnamed_addr #0 {
  %2 = icmp eq ptr %0, null
  br i1 %2, label %18, label %3

3:                                                ; preds = %1
  %4 = load ptr, ptr %0, align 8
  %5 = getelementptr inbounds i8, ptr %4, i64 32
  %6 = load ptr, ptr %5, align 8
  %.not15 = icmp eq ptr %6, null
  br i1 %.not15, label %._crit_edge, label %.lr.ph

.lr.ph:                                           ; preds = %3, %.lr.ph
  %7 = phi ptr [ %12, %.lr.ph ], [ %6, %3 ]
  %.016 = phi ptr [ %7, %.lr.ph ], [ %4, %3 ]
  %8 = load ptr, ptr %.016, align 8
  %9 = tail call ptr @lexbor_free(ptr noundef %8) #6
  store ptr %9, ptr %.016, align 8
  %10 = tail call ptr @lexbor_free(ptr noundef nonnull %.016) #6
  %11 = getelementptr inbounds i8, ptr %7, i64 32
  %12 = load ptr, ptr %11, align 8
  %.not = icmp eq ptr %12, null
  br i1 %.not, label %._crit_edge, label %.lr.ph

._crit_edge:                                      ; preds = %.lr.ph, %3
  %.0.lcssa = phi ptr [ %4, %3 ], [ %7, %.lr.ph ]
  %13 = getelementptr inbounds i8, ptr %.0.lcssa, i64 24
  store ptr null, ptr %13, align 8
  %14 = getelementptr inbounds i8, ptr %.0.lcssa, i64 8
  store i64 0, ptr %14, align 8
  %15 = getelementptr inbounds i8, ptr %0, i64 8
  %16 = load ptr, ptr %15, align 8
  store ptr %16, ptr %0, align 8
  %17 = getelementptr inbounds i8, ptr %0, i64 24
  store i64 1, ptr %17, align 8
  br label %18

18:                                               ; preds = %1, %._crit_edge
  ret void
}